target datalayout = "e-m:e-p270:32:32-p271:32:32-p272:64:64-i64:64-i128:128-f80:128-n8:16:32:64-S128"
target triple = "x86_64-pc-linux-gnu"

%struct.XML_Memory_Handling_Suite = type { ptr, ptr, ptr }
%struct.XML_ParserStruct = type { ptr, ptr, ptr, %struct.XML_Memory_Handling_Suite, ptr, ptr, ptr, i64, ptr, i64, i8, i32, ptr, ptr, ptr, ptr, ptr, ptr, ptr, ptr, ptr, ptr, ptr, ptr, ptr, ptr, ptr, ptr, ptr, ptr, ptr, ptr, ptr, ptr, ptr, ptr, ptr, ptr, %struct.INIT_ENCODING, ptr, ptr, i8, i8, ptr, ptr, ptr, ptr, %struct.prolog_state, ptr, i32, ptr, ptr, ptr, ptr, ptr, i8, i32, ptr, ptr, ptr, ptr, ptr, ptr, ptr, ptr, ptr, i8, i8, ptr, ptr, ptr, ptr, ptr, ptr, i32, i32, i32, ptr, ptr, i64, i8, %struct.position, %struct.STRING_POOL, %struct.STRING_POOL, ptr, i32, i8, ptr, %struct.XML_ParsingStatus, i8, i8, i32, i64, %struct.accounting, %struct.entity_stats }
%struct.INIT_ENCODING = type { %struct.encoding, ptr }
%struct.encoding = type { [4 x ptr], [2 x ptr], ptr, ptr, ptr, ptr, ptr, ptr, ptr, ptr, ptr, ptr, i32, i8, i8 }
%struct.prolog_state = type { ptr, i32, i32, i32, i32, i32 }
%struct.position = type { i64, i64 }
%struct.STRING_POOL = type { ptr, ptr, ptr, ptr, ptr, ptr }
%struct.XML_ParsingStatus = type { i32, i8 }
%struct.accounting = type { i64, i64, i64, float, i64 }
%struct.entity_stats = type { i32, i32, i32, i64 }

; Function Attrs: nounwind uwtable
define internal i32 @entityValueProcessor(ptr noundef %0, ptr noundef %1, ptr noundef %2, ptr noundef %3) #0 {
  %5 = alloca i32, align 4
  %6 = alloca ptr, align 8
  %7 = alloca ptr, align 8
  %8 = alloca ptr, align 8
  %9 = alloca ptr, align 8
  %10 = alloca ptr, align 8
  %11 = alloca ptr, align 8
  %12 = alloca ptr, align 8
  %13 = alloca i32, align 4
  %14 = alloca i32, align 4
  store ptr %0, ptr %6, align 8, !tbaa !12
  store ptr %1, ptr %7, align 8, !tbaa !3
  store ptr %2, ptr %8, align 8, !tbaa !3
  store ptr %3, ptr %9, align 8, !tbaa !203
  call void @llvm.lifetime.start.p0(i64 8, ptr %10) #11
  %15 = load ptr, ptr %7, align 8, !tbaa !3
  store ptr %15, ptr %10, align 8, !tbaa !3
  call void @llvm.lifetime.start.p0(i64 8, ptr %11) #11
  %16 = load ptr, ptr %7, align 8, !tbaa !3
  store ptr %16, ptr %11, align 8, !tbaa !3
  call void @llvm.lifetime.start.p0(i64 8, ptr %12) #11
  %17 = load ptr, ptr %6, align 8, !tbaa !12
  %18 = getelementptr inbounds nuw %struct.XML_ParserStruct, ptr %17, i32 0, i32 37
  %19 = load ptr, ptr %18, align 8, !tbaa !213
  store ptr %19, ptr %12, align 8, !tbaa !228
  call void @llvm.lifetime.start.p0(i64 4, ptr %13) #11
  br label %20

20:                                               ; preds = %56, %4
  %21 = load ptr, ptr %12, align 8, !tbaa !228
  %22 = getelementptr inbounds nuw %struct.encoding, ptr %21, i32 0, i32 0
  %23 = getelementptr [4 x ptr], ptr %22, i64 0, i64 0
  %24 = load ptr, ptr %23, align 8, !tbaa !8
  %25 = load ptr, ptr %12, align 8, !tbaa !228
  %26 = load ptr, ptr %10, align 8, !tbaa !3
  %27 = load ptr, ptr %8, align 8, !tbaa !3
  %28 = call i32 %24(ptr noundef %25, ptr noundef %26, ptr noundef %27, ptr noundef %11)
  store i32 %28, ptr %13, align 4, !tbaa !174
  %29 = load i32, ptr %13, align 4, !tbaa !174
  %30 = icmp sle i32 %29, 0
  br i1 %30, label %31, label %56

31:                                               ; preds = %20
  %32 = load ptr, ptr %6, align 8, !tbaa !12
  %33 = getelementptr inbounds nuw %struct.XML_ParserStruct, ptr %32, i32 0, i32 88
  %34 = getelementptr inbounds nuw %struct.XML_ParsingStatus, ptr %33, i32 0, i32 1
  %35 = load i8, ptr %34, align 4, !tbaa !212
  %36 = icmp ne i8 %35, 0
  br i1 %36, label %43, label %37

37:                                               ; preds = %31
  %38 = load i32, ptr %13, align 4, !tbaa !174
  %39 = icmp ne i32 %38, 0
  br i1 %39, label %40, label %43

40:                                               ; preds = %37
  %41 = load ptr, ptr %7, align 8, !tbaa !3
  %42 = load ptr, ptr %9, align 8, !tbaa !203
  store ptr %41, ptr %42, align 8, !tbaa !3
  store i32 0, ptr %5, align 4
  store i32 1, ptr %14, align 4
  br label %58

43:                                               ; preds = %37, %31
  %44 = load i32, ptr %13, align 4, !tbaa !174
  switch i32 %44, label %49 [
    i32 0, label %45
    i32 -1, label %46
    i32 -2, label %47
    i32 -4, label %48
  ]

45:                                               ; preds = %43
  store i32 4, ptr %5, align 4
  store i32 1, ptr %14, align 4
  br label %58

46:                                               ; preds = %43
  store i32 5, ptr %5, align 4
  store i32 1, ptr %14, align 4
  br label %58

47:                                               ; preds = %43
  store i32 6, ptr %5, align 4
  store i32 1, ptr %14, align 4
  br label %58

48:                                               ; preds = %43
  br label %49

49:                                               ; preds = %43, %48
  br label %50

50:                                               ; preds = %49
  %51 = load ptr, ptr %6, align 8, !tbaa !12
  %52 = load ptr, ptr %12, align 8, !tbaa !228
  %53 = load ptr, ptr %7, align 8, !tbaa !3
  %54 = load ptr, ptr %8, align 8, !tbaa !3
  %55 = call i32 @storeEntityValue(ptr noundef %51, ptr noundef %52, ptr noundef %53, ptr noundef %54, i32 noundef 0)
  store i32 %55, ptr %5, align 4
  store i32 1, ptr %14, align 4
  br label %58

56:                                               ; preds = %20
  %57 = load ptr, ptr %11, align 8, !tbaa !3
  store ptr %57, ptr %10, align 8, !tbaa !3
  br label %20

58:                                               ; preds = %50, %47, %46, %45, %40
  call void @llvm.lifetime.end.p0(i64 4, ptr %13) #11
  call void @llvm.lifetime.end.p0(i64 8, ptr %12) #11
  call void @llvm.lifetime.end.p0(i64 8, ptr %11) #11
  call void @llvm.lifetime.end.p0(i64 8, ptr %10) #11
  %59 = load i32, ptr %5, align 4
  ret i32 %59
}