; Function Attrs: nounwind uwtable
define internal range(i32 0, 44) i32 @entityValueProcessor(ptr noundef %0, ptr noundef %1, ptr noundef %2, ptr noundef writeonly captures(none) %3) #0 {
  %5 = alloca ptr, align 8
  call void @llvm.lifetime.start.p0(i64 8, ptr nonnull %5) #25
  store ptr %1, ptr %5, align 8, !tbaa !117
  %6 = getelementptr inbounds nuw i8, ptr %0, i64 304
  %7 = load ptr, ptr %6, align 8, !tbaa !206
  %8 = load ptr, ptr %7, align 8, !tbaa !92
  %9 = call i32 %8(ptr noundef nonnull %7, ptr noundef %1, ptr noundef %2, ptr noundef nonnull %5) #25
  %10 = icmp slt i32 %9, 1
  br i1 %10, label %._crit_edge, label %.lr.ph

._crit_edge:                                      ; preds = %.lr.ph, %4
  %.lcssa = phi i32 [ %9, %4 ], [ %22, %.lr.ph ]
  %11 = getelementptr inbounds nuw i8, ptr %0, i64 924
  %12 = load i8, ptr %11, align 4, !tbaa !202
  %13 = icmp eq i8 %12, 0
  %14 = icmp ne i32 %.lcssa, 0
  %or.cond = and i1 %14, %13
  br i1 %or.cond, label %15, label %16

15:                                               ; preds = %._crit_edge
  store ptr %1, ptr %3, align 8, !tbaa !117
  br label %24

16:                                               ; preds = %._crit_edge
  %switch.tableidx = add i32 %.lcssa, 2
  %17 = icmp ult i32 %switch.tableidx, 3
  br i1 %17, label %switch.lookup, label %18

18:                                               ; preds = %16
  %19 = call fastcc i32 @storeEntityValue(ptr noundef nonnull %0, ptr noundef nonnull %7, ptr noundef %1, ptr noundef %2, i32 noundef 0)
  br label %24

.lr.ph:                                           ; preds = %4, %.lr.ph
  %20 = load ptr, ptr %5, align 8, !tbaa !117
  %21 = load ptr, ptr %7, align 8, !tbaa !92
  %22 = call i32 %21(ptr noundef nonnull %7, ptr noundef %20, ptr noundef %2, ptr noundef nonnull %5) #25
  %23 = icmp slt i32 %22, 1
  br i1 %23, label %._crit_edge, label %.lr.ph

switch.lookup:                                    ; preds = %16
  %switch.offset = sub i32 4, %.lcssa
  br label %24

24:                                               ; preds = %switch.lookup, %18, %15
  %.0 = phi i32 [ 0, %15 ], [ %19, %18 ], [ %switch.offset, %switch.lookup ]
  call void @llvm.lifetime.end.p0(i64 8, ptr nonnull %5) #25
  ret i32 %.0
}